target datalayout = "e-m:e-p270:32:32-p271:32:32-p272:64:64-i64:64-i128:128-f80:128-n8:16:32:64-S128"
target triple = "x86_64-pc-linux-gnu"

@rb_cFile = external global i64, align 8
@rb_cIO = dso_local global i64 0, align 8
@.str.25 = private unnamed_addr constant [2 x i8] c"-\00", align 1

; Function Attrs: nounwind sspstrong willreturn memory(none) uwtable
define dso_local i32 @rb_io_oflags_fmode(i32 noundef %0) #16 {
  %2 = alloca i32, align 4
  %3 = alloca i32, align 4
  store i32 %0, ptr %2, align 4, !tbaa !13
  call void @llvm.lifetime.start.p0(i64 4, ptr %3) #28
  store i32 0, ptr %3, align 4, !tbaa !13
  %4 = load i32, ptr %2, align 4, !tbaa !13
  %5 = and i32 %4, 3
  switch i32 %5, label %9 [
    i32 0, label %6
    i32 1, label %7
    i32 2, label %8
  ]

6:                                                ; preds = %1
  store i32 1, ptr %3, align 4, !tbaa !13
  br label %9

7:                                                ; preds = %1
  store i32 2, ptr %3, align 4, !tbaa !13
  br label %9

8:                                                ; preds = %1
  store i32 3, ptr %3, align 4, !tbaa !13
  br label %9

9:                                                ; preds = %1, %8, %7, %6
  %10 = load i32, ptr %2, align 4, !tbaa !13
  %11 = and i32 %10, 1024
  %12 = icmp ne i32 %11, 0
  br i1 %12, label %13, label %16

13:                                               ; preds = %9
  %14 = load i32, ptr %3, align 4, !tbaa !13
  %15 = or i32 %14, 64
  store i32 %15, ptr %3, align 4, !tbaa !13
  br label %16

16:                                               ; preds = %13, %9
  %17 = load i32, ptr %2, align 4, !tbaa !13
  %18 = and i32 %17, 512
  %19 = icmp ne i32 %18, 0
  br i1 %19, label %20, label %23

20:                                               ; preds = %16
  %21 = load i32, ptr %3, align 4, !tbaa !13
  %22 = or i32 %21, 2048
  store i32 %22, ptr %3, align 4, !tbaa !13
  br label %23

23:                                               ; preds = %20, %16
  %24 = load i32, ptr %2, align 4, !tbaa !13
  %25 = and i32 %24, 64
  %26 = icmp ne i32 %25, 0
  br i1 %26, label %27, label %30

27:                                               ; preds = %23
  %28 = load i32, ptr %3, align 4, !tbaa !13
  %29 = or i32 %28, 128
  store i32 %29, ptr %3, align 4, !tbaa !13
  br label %30

30:                                               ; preds = %27, %23
  %31 = load i32, ptr %2, align 4, !tbaa !13
  %32 = and i32 %31, 128
  %33 = icmp ne i32 %32, 0
  br i1 %33, label %34, label %37

34:                                               ; preds = %30
  %35 = load i32, ptr %3, align 4, !tbaa !13
  %36 = or i32 %35, 1024
  store i32 %36, ptr %3, align 4, !tbaa !13
  br label %37

37:                                               ; preds = %34, %30
  %38 = load i32, ptr %3, align 4, !tbaa !13
  call void @llvm.lifetime.end.p0(i64 4, ptr %3) #28
  ret i32 %38
}

; Function Attrs: nounwind sspstrong uwtable
define dso_local i64 @rb_io_fdopen(i32 noundef %0, i32 noundef %1, ptr noundef %2) #0 {
  %4 = alloca i32, align 4
  %5 = alloca i32, align 4
  %6 = alloca ptr, align 8
  %7 = alloca i64, align 8
  store i32 %0, ptr %4, align 4, !tbaa !13
  store i32 %1, ptr %5, align 4, !tbaa !13
  store ptr %2, ptr %6, align 8, !tbaa !30
  call void @llvm.lifetime.start.p0(i64 8, ptr %7) #28
  %8 = load i64, ptr @rb_cIO, align 8, !tbaa !32
  store i64 %8, ptr %7, align 8, !tbaa !32
  %9 = load ptr, ptr %6, align 8, !tbaa !30
  %10 = icmp ne ptr %9, null
  br i1 %10, label %11, label %17

11:                                               ; preds = %3
  %12 = load ptr, ptr %6, align 8, !tbaa !30
  %13 = call i32 @strcmp(ptr noundef %12, ptr noundef @.str.25) #32
  %14 = icmp ne i32 %13, 0
  br i1 %14, label %15, label %17

15:                                               ; preds = %11
  %16 = load i64, ptr @rb_cFile, align 8, !tbaa !32
  store i64 %16, ptr %7, align 8, !tbaa !32
  br label %17

17:                                               ; preds = %15, %11, %3
  %18 = load i32, ptr %4, align 4, !tbaa !13
  %19 = load i32, ptr %5, align 4, !tbaa !13
  %20 = call i32 @rb_io_oflags_fmode(i32 noundef %19) #33
  %21 = load i64, ptr %7, align 8, !tbaa !32
  %22 = load ptr, ptr %6, align 8, !tbaa !30
  %23 = call i64 @prep_io(i32 noundef %18, i32 noundef %20, i64 noundef %21, ptr noundef %22)
  call void @llvm.lifetime.end.p0(i64 8, ptr %7) #28
  ret i64 %23
}