; Function Attrs: nounwind sspstrong uwtable
define dso_local i64 @rb_io_fdopen(i32 noundef %0, i32 noundef %1, ptr noundef %2) local_unnamed_addr #0 {
  %4 = load i64, ptr @rb_cIO, align 8, !tbaa !23
  %.not = icmp eq ptr %2, null
  br i1 %.not, label %switch.lookup, label %sub_0

sub_0:                                            ; preds = %3
  %5 = load i8, ptr %2, align 1
  %.not7 = icmp eq i8 %5, 45
  br i1 %.not7, label %.tail, label %.tail.thread

.tail.thread:                                     ; preds = %sub_0
  %6 = load i64, ptr @rb_cFile, align 8
  br label %switch.lookup

.tail:                                            ; preds = %sub_0
  %7 = getelementptr inbounds nuw i8, ptr %2, i64 1
  %8 = load i8, ptr %7, align 1
  %.fr = freeze i8 %8
  %9 = icmp eq i8 %.fr, 0
  %10 = load i64, ptr @rb_cFile, align 8
  %spec.select = select i1 %9, i64 %4, i64 %10
  br label %switch.lookup

switch.lookup:                                    ; preds = %.tail, %.tail.thread, %3
  %.0 = phi i64 [ %4, %3 ], [ %6, %.tail.thread ], [ %spec.select, %.tail ]
  %11 = and i32 %1, 3
  %12 = zext nneg i32 %11 to i64
  %switch.gep = getelementptr inbounds nuw [4 x i32], ptr @switch.table.io_initialize, i64 0, i64 %12
  %switch.load = load i32, ptr %switch.gep, align 4
  %13 = lshr i32 %1, 4
  %14 = and i32 %13, 64
  %15 = shl i32 %1, 2
  %16 = and i32 %15, 2048
  %17 = shl i32 %1, 1
  %18 = and i32 %17, 128
  %19 = shl i32 %1, 3
  %20 = and i32 %19, 1024
  %spec.select.i = or disjoint i32 %16, %14
  %.2.i = or disjoint i32 %spec.select.i, %18
  %.3.i = or disjoint i32 %.2.i, %20
  %.4.i = or disjoint i32 %.3.i, %switch.load
  %21 = tail call fastcc i64 @prep_io(i32 noundef %0, i32 noundef %.4.i, i64 noundef %.0, ptr noundef %2)
  ret i64 %21
}